   1              		.cpu cortex-m0
   2              		.fpu softvfp
   3              		.eabi_attribute 20, 1
   4              		.eabi_attribute 21, 1
   5              		.eabi_attribute 23, 3
   6              		.eabi_attribute 24, 1
   7              		.eabi_attribute 25, 1
   8              		.eabi_attribute 26, 1
   9              		.eabi_attribute 30, 4
  10              		.eabi_attribute 34, 0
  11              		.eabi_attribute 18, 4
  12              		.code	16
  13              		.file	"BlockCommutation.c"
  14              		.global	__aeabi_f2d
  15              		.global	__aeabi_dmul
  16              		.global	__aeabi_ddiv
  17              		.global	__aeabi_d2uiz
  18              		.global	__aeabi_ui2f
  19              		.global	__aeabi_fmul
  20              		.global	__aeabi_f2uiz
  21              		.section	.text.InitBlockCommutation,"ax",%progbits
  22              		.align	1
  23              		.global	InitBlockCommutation
  24              		.code	16
  25              		.thumb_func
  27              	InitBlockCommutation:
  28 0000 F7B5     		push	{r0, r1, r2, r4, r5, r6, r7, lr}
  29 0002 614D     		ldr	r5, .L2+16
  30              		@ sp needed for prologue
  31 0004 2868     		ldr	r0, [r5]
  32 0006 FFF7FEFF 		bl	__aeabi_f2d
  33 000a 5C4B     		ldr	r3, .L2+4
  34 000c 5A4A     		ldr	r2, .L2
  35 000e FFF7FEFF 		bl	__aeabi_dmul
  36 0012 021C     		mov	r2, r0
  37 0014 0B1C     		mov	r3, r1
  38 0016 5A48     		ldr	r0, .L2+8
  39 0018 5A49     		ldr	r1, .L2+12
  40 001a FFF7FEFF 		bl	__aeabi_ddiv
  41 001e FFF7FEFF 		bl	__aeabi_d2uiz
  42 0022 5A4C     		ldr	r4, .L2+20
  43 0024 0138     		sub	r0, r0, #1
  44 0026 2060     		str	r0, [r4]
  45 0028 2068     		ldr	r0, [r4]
  46 002a 6E68     		ldr	r6, [r5, #4]
  47 002c FFF7FEFF 		bl	__aeabi_ui2f
  48 0030 311C     		add	r1, r6, #0
  49 0032 FFF7FEFF 		bl	__aeabi_fmul
  50 0036 FFF7FEFF 		bl	__aeabi_f2uiz
  51 003a 6060     		str	r0, [r4, #4]
  52 003c 2768     		ldr	r7, [r4]
  53 003e 544A     		ldr	r2, .L2+24
  54 0040 5449     		ldr	r1, .L2+28
  55 0042 5548     		ldr	r0, .L2+32
  56 0044 554B     		ldr	r3, .L2+36
  57 0046 5F63     		str	r7, [r3, #52]
  58 0048 5763     		str	r7, [r2, #52]
  59 004a 4F63     		str	r7, [r1, #52]
  60 004c 4763     		str	r7, [r0, #52]
  61 004e 6568     		ldr	r5, [r4, #4]
  62 0050 0027     		mov	r7, #0
  63 0052 C563     		str	r5, [r0, #60]
  64 0054 2668     		ldr	r6, [r4]
  65 0056 0136     		add	r6, r6, #1
  66 0058 4664     		str	r6, [r0, #68]
  67 005a CF63     		str	r7, [r1, #60]
  68 005c 4F64     		str	r7, [r1, #68]
  69 005e D763     		str	r7, [r2, #60]
  70 0060 2568     		ldr	r5, [r4]
  71 0062 0135     		add	r5, r5, #1
  72 0064 5564     		str	r5, [r2, #68]
  73 0066 6668     		ldr	r6, [r4, #4]
  74 0068 A025     		mov	r5, #160
  75 006a 013E     		sub	r6, r6, #1
  76 006c DE63     		str	r6, [r3, #60]
  77 006e 6768     		ldr	r7, [r4, #4]
  78 0070 EE05     		lsl	r6, r5, #23
  79 0072 013F     		sub	r7, r7, #1
  80 0074 5F64     		str	r7, [r3, #68]
  81 0076 3569     		ldr	r5, [r6, #16]
  82 0078 494F     		ldr	r7, .L2+40
  83 007a 3D43     		orr	r5, r7
  84 007c 3561     		str	r5, [r6, #16]
  85 007e 0568     		ldr	r5, [r0]
  86 0080 484F     		ldr	r7, .L2+44
  87 0082 3D43     		orr	r5, r7
  88 0084 0560     		str	r5, [r0]
  89 0086 BC46     		mov	ip, r7
  90 0088 4768     		ldr	r7, [r0, #4]
  91 008a 0125     		mov	r5, #1
  92 008c 2F43     		orr	r7, r5
  93 008e 4760     		str	r7, [r0, #4]
  94 0090 0F68     		ldr	r7, [r1]
  95 0092 6546     		mov	r5, ip
  96 0094 2F43     		orr	r7, r5
  97 0096 0F60     		str	r7, [r1]
  98 0098 4F68     		ldr	r7, [r1, #4]
  99 009a 0125     		mov	r5, #1
 100 009c 2F43     		orr	r7, r5
 101 009e 4F60     		str	r7, [r1, #4]
 102 00a0 1768     		ldr	r7, [r2]
 103 00a2 6546     		mov	r5, ip
 104 00a4 2F43     		orr	r7, r5
 105 00a6 1760     		str	r7, [r2]
 106 00a8 5768     		ldr	r7, [r2, #4]
 107 00aa 0125     		mov	r5, #1
 108 00ac 2F43     		orr	r7, r5
 109 00ae 5760     		str	r7, [r2, #4]
 110 00b0 1F68     		ldr	r7, [r3]
 111 00b2 6546     		mov	r5, ip
 112 00b4 2F43     		orr	r7, r5
 113 00b6 1F60     		str	r7, [r3]
 114 00b8 5F68     		ldr	r7, [r3, #4]
 115 00ba 0125     		mov	r5, #1
 116 00bc 2F43     		orr	r7, r5
 117 00be 5F60     		str	r7, [r3, #4]
 118 00c0 F768     		ldr	r7, [r6, #12]
 119 00c2 0F25     		mov	r5, #15
 120 00c4 2F43     		orr	r7, r5
 121 00c6 F760     		str	r7, [r6, #12]
 122 00c8 876C     		ldr	r7, [r0, #72]
 123 00ca 1E26     		mov	r6, #30
 124 00cc 3743     		orr	r7, r6
 125 00ce 8764     		str	r7, [r0, #72]
 126 00d0 886C     		ldr	r0, [r1, #72]
 127 00d2 A827     		mov	r7, #168
 128 00d4 3043     		orr	r0, r6
 129 00d6 8864     		str	r0, [r1, #72]
 130 00d8 916C     		ldr	r1, [r2, #72]
 131 00da 0020     		mov	r0, #0
 132 00dc 0E43     		orr	r6, r1
 133 00de 9664     		str	r6, [r2, #72]
 134 00e0 314A     		ldr	r2, .L2+48
 135 00e2 3906     		lsl	r1, r7, #24
 136 00e4 1569     		ldr	r5, [r2, #16]
 137 00e6 3D43     		orr	r5, r7
 138 00e8 1561     		str	r5, [r2, #16]
 139 00ea 1669     		ldr	r6, [r2, #16]
 140 00ec 0E43     		orr	r6, r1
 141 00ee 1661     		str	r6, [r2, #16]
 142 00f0 5569     		ldr	r5, [r2, #20]
 143 00f2 0D43     		orr	r5, r1
 144 00f4 5561     		str	r5, [r2, #20]
 145 00f6 5669     		ldr	r6, [r2, #20]
 146 00f8 3E43     		orr	r6, r7
 147 00fa 5661     		str	r6, [r2, #20]
 148 00fc 9061     		str	r0, [r2, #24]
 149 00fe 9569     		ldr	r5, [r2, #24]
 150 0100 0326     		mov	r6, #3
 151 0102 2F43     		orr	r7, r5
 152 0104 9761     		str	r7, [r2, #24]
 153 0106 9769     		ldr	r7, [r2, #24]
 154 0108 2848     		ldr	r0, .L2+52
 155 010a 3943     		orr	r1, r7
 156 010c 9161     		str	r1, [r2, #24]
 157 010e 2849     		ldr	r1, .L2+56
 158 0110 0025     		mov	r5, #0
 159 0112 4A6A     		ldr	r2, [r1, #36]
 160 0114 3243     		orr	r2, r6
 161 0116 4A62     		str	r2, [r1, #36]
 162 0118 264A     		ldr	r2, .L2+60
 163 011a 4863     		str	r0, [r1, #52]
 164 011c CD63     		str	r5, [r1, #60]
 165 011e 1769     		ldr	r7, [r2, #16]
 166 0120 0126     		mov	r6, #1
 167 0122 3743     		orr	r7, r6
 168 0124 081C     		mov	r0, r1
 169 0126 1761     		str	r7, [r2, #16]
 170 0128 A430     		add	r0, r0, #164
 171 012a 0568     		ldr	r5, [r0]
 172 012c 0421     		mov	r1, #4
 173 012e 0D43     		orr	r5, r1
 174 0130 0560     		str	r5, [r0]
 175 0132 C527     		mov	r7, #197
 176 0134 2048     		ldr	r0, .L2+64
 177 0136 BE00     		lsl	r6, r7, #2
 178 0138 8559     		ldr	r5, [r0, r6]
 179 013a AC46     		mov	ip, r5
 180 013c 1F4D     		ldr	r5, .L2+68
 181 013e 6746     		mov	r7, ip
 182 0140 3D40     		and	r5, r7
 183 0142 8551     		str	r5, [r0, r6]
 184 0144 8026     		mov	r6, #128
 185 0146 B503     		lsl	r5, r6, #14
 186 0148 0560     		str	r5, [r0]
 187 014a D068     		ldr	r0, [r2, #12]
 188 014c 0127     		mov	r7, #1
 189 014e 0743     		orr	r7, r0
 190 0150 D760     		str	r7, [r2, #12]
 191 0152 1E1C     		mov	r6, r3
 192 0154 0022     		mov	r2, #0
 193 0156 2272     		strb	r2, [r4, #8]
 194 0158 A836     		add	r6, r6, #168
 195 015a 3568     		ldr	r5, [r6]
 196 015c 2024     		mov	r4, #32
 197 015e 2543     		orr	r5, r4
 198 0160 3560     		str	r5, [r6]
 199 0162 3068     		ldr	r0, [r6]
 200 0164 A433     		add	r3, r3, #164
 201 0166 0843     		orr	r0, r1
 202 0168 3060     		str	r0, [r6]
 203 016a 1F68     		ldr	r7, [r3]
 204 016c 3943     		orr	r1, r7
 205 016e 1960     		str	r1, [r3]
 206 0170 F7BD     		pop	{r0, r1, r2, r4, r5, r6, r7, pc}
 207              	.L3:
 208 0172 C046C046 		.align	3
 208      C046
 209              	.L2:
 210 0178 00000000 		.word	0
 211 017c 00403F40 		.word	1077886976
 212 0180 00000000 		.word	0
 213 0184 65CDCD41 		.word	1104006501
 214 0188 00000000 		.word	.LANCHOR0
 215 018c 00000000 		.word	.LANCHOR1
 216 0190 00030050 		.word	1342178048
 217 0194 00020050 		.word	1342177792
 218 0198 00010050 		.word	1342177536
 219 019c 00040050 		.word	1342178304
 220 01a0 11110000 		.word	4369
 221 01a4 07000100 		.word	65543
 222 01a8 00000440 		.word	1074003968
 223 01ac 8A500000 		.word	20618
 224 01b0 00010448 		.word	1208221952
 225 01b4 00000448 		.word	1208221696
 226 01b8 00E100E0 		.word	-536813312
 227 01bc FF00FFFF 		.word	-65281
 229              		.global	__aeabi_ui2d
 230              		.global	__aeabi_dsub
 231              		.section	.text.CCU40_0_IRQHandler,"ax",%progbits
 232              		.align	1
 233              		.global	CCU40_0_IRQHandler
 234              		.code	16
 235              		.thumb_func
 237              	CCU40_0_IRQHandler:
 238 0000 F0B5     		push	{r4, r5, r6, r7, lr}
 239 0002 854C     		ldr	r4, .L32+24
 240 0004 85B0     		sub	sp, sp, #20
 241 0006 637A     		ldrb	r3, [r4, #9]
 242 0008 002B     		cmp	r3, #0
 243 000a 00D1     		bne	.LCB223
 244 000c F1E0     		b	.L5	@long jump
 245              	.LCB223:
 246 000e 267A     		ldrb	r6, [r4, #8]
 247 0010 351E     		sub	r5, r6, #0
 248 0012 77D1     		bne	.L6
 249 0014 2068     		ldr	r0, [r4]
 250 0016 2168     		ldr	r1, [r4]
 251 0018 E768     		ldr	r7, [r4, #12]
 252 001a 0091     		str	r1, [sp]
 253 001c FFF7FEFF 		bl	__aeabi_ui2d
 254 0020 784B     		ldr	r3, .L32+4
 255 0022 774A     		ldr	r2, .L32
 256 0024 FFF7FEFF 		bl	__aeabi_dmul
 257 0028 0290     		str	r0, [sp, #8]
 258 002a 0391     		str	r1, [sp, #12]
 259 002c 0098     		ldr	r0, [sp]
 260 002e FFF7FEFF 		bl	__aeabi_ui2d
 261 0032 754A     		ldr	r2, .L32+8
 262 0034 754B     		ldr	r3, .L32+12
 263 0036 FFF7FEFF 		bl	__aeabi_dmul
 264 003a 754A     		ldr	r2, .L32+16
 265 003c 754B     		ldr	r3, .L32+20
 266 003e FFF7FEFF 		bl	__aeabi_ddiv
 267 0042 0090     		str	r0, [sp]
 268 0044 0191     		str	r1, [sp, #4]
 269 0046 381C     		mov	r0, r7
 270 0048 1338     		sub	r0, r0, #19
 271 004a FFF7FEFF 		bl	__aeabi_ui2d
 272 004e 021C     		mov	r2, r0
 273 0050 0B1C     		mov	r3, r1
 274 0052 0098     		ldr	r0, [sp]
 275 0054 0199     		ldr	r1, [sp, #4]
 276 0056 FFF7FEFF 		bl	__aeabi_dmul
 277 005a 021C     		mov	r2, r0
 278 005c 0B1C     		mov	r3, r1
 279 005e 0298     		ldr	r0, [sp, #8]
 280 0060 0399     		ldr	r1, [sp, #12]
 281 0062 FFF7FEFF 		bl	__aeabi_dsub
 282 0066 FFF7FEFF 		bl	__aeabi_d2uiz
 283 006a 7B1C     		add	r3, r7, #1
 284 006c 6060     		str	r0, [r4, #4]
 285 006e E360     		str	r3, [r4, #12]
 286 0070 6A4A     		ldr	r2, .L32+28
 287 0072 132B     		cmp	r3, #19
 288 0074 2ED8     		bhi	.L7
 289 0076 0121     		mov	r1, #1
 290 0078 1172     		strb	r1, [r2, #8]
 291 007a 2068     		ldr	r0, [r4]
 292 007c FFF7FEFF 		bl	__aeabi_ui2d
 293 0080 604B     		ldr	r3, .L32+4
 294 0082 5F4A     		ldr	r2, .L32
 295 0084 FFF7FEFF 		bl	__aeabi_dmul
 296 0088 FFF7FEFF 		bl	__aeabi_d2uiz
 297 008c 644F     		ldr	r7, .L32+32
 298 008e 0422     		mov	r2, #4
 299 0090 6060     		str	r0, [r4, #4]
 300 0092 2674     		strb	r6, [r4, #16]
 301 0094 FA62     		str	r2, [r7, #44]
 302 0096 6068     		ldr	r0, [r4, #4]
 303 0098 624B     		ldr	r3, .L32+36
 304 009a 6349     		ldr	r1, .L32+40
 305 009c D863     		str	r0, [r3, #60]
 306 009e 2668     		ldr	r6, [r4]
 307 00a0 624F     		ldr	r7, .L32+44
 308 00a2 0136     		add	r6, r6, #1
 309 00a4 5E64     		str	r6, [r3, #68]
 310 00a6 CD63     		str	r5, [r1, #60]
 311 00a8 4D64     		str	r5, [r1, #68]
 312 00aa FD63     		str	r5, [r7, #60]
 313 00ac 2568     		ldr	r5, [r4]
 314 00ae 6048     		ldr	r0, .L32+48
 315 00b0 0135     		add	r5, r5, #1
 316 00b2 7D64     		str	r5, [r7, #68]
 317 00b4 2268     		ldr	r2, [r4]
 318 00b6 A023     		mov	r3, #160
 319 00b8 0132     		add	r2, r2, #1
 320 00ba C263     		str	r2, [r0, #60]
 321 00bc 2468     		ldr	r4, [r4]
 322 00be DE05     		lsl	r6, r3, #23
 323 00c0 0134     		add	r4, r4, #1
 324 00c2 4464     		str	r4, [r0, #68]
 325 00c4 3169     		ldr	r1, [r6, #16]
 326 00c6 5B4F     		ldr	r7, .L32+52
 327 00c8 3943     		orr	r1, r7
 328 00ca 3161     		str	r1, [r6, #16]
 329              	.L8:
 330 00cc B569     		ldr	r5, [r6, #24]
 331 00ce 3D42     		tst	r5, r7
 332 00d0 FCD1     		bne	.L8
 333 00d2 88E0     		b	.L29
 334              	.L7:
 335 00d4 1672     		strb	r6, [r2, #8]
 336 00d6 F322     		mov	r2, #243
 337 00d8 5343     		mul	r3, r2
 338 00da 574E     		ldr	r6, .L32+56
 339 00dc 5748     		ldr	r0, .L32+60
 340 00de F31A     		sub	r3, r6, r3
 341 00e0 123F     		sub	r7, r7, #18
 342 00e2 4363     		str	r3, [r0, #52]
 343 00e4 472F     		cmp	r7, #71
 344 00e6 04D9     		bls	.L10
 345 00e8 E560     		str	r5, [r4, #12]
 346 00ea 0125     		mov	r5, #1
 347 00ec 2572     		strb	r5, [r4, #8]
 348 00ee 544C     		ldr	r4, .L32+64
 349 00f0 4463     		str	r4, [r0, #52]
 350              	.L10:
 351 00f2 544E     		ldr	r6, .L32+68
 352 00f4 0121     		mov	r1, #1
 353 00f6 3269     		ldr	r2, [r6, #16]
 354 00f8 0A43     		orr	r2, r1
 355 00fa 3261     		str	r2, [r6, #16]
 356              	.L11:
 357 00fc B369     		ldr	r3, [r6, #24]
 358 00fe D907     		lsl	r1, r3, #31
 359 0100 FCD4     		bmi	.L11
 360 0102 01E0     		b	.L12
 361              	.L6:
 362 0104 0221     		mov	r1, #2
 363 0106 6172     		strb	r1, [r4, #9]
 364              	.L12:
 365 0108 434F     		ldr	r7, .L32+24
 366 010a 387C     		ldrb	r0, [r7, #16]
 367 010c 0130     		add	r0, r0, #1
 368 010e C5B2     		uxtb	r5, r0
 369 0110 3D74     		strb	r5, [r7, #16]
 370 0112 3C7C     		ldrb	r4, [r7, #16]
 371 0114 66B2     		sxtb	r6, r4
 372 0116 052E     		cmp	r6, #5
 373 0118 01DD     		ble	.L13
 374 011a 0022     		mov	r2, #0
 375 011c 3A74     		strb	r2, [r7, #16]
 376              	.L13:
 377 011e 397C     		ldrb	r1, [r7, #16]
 378 0120 48B2     		sxtb	r0, r1
 379 0122 0528     		cmp	r0, #5
 380 0124 4FD8     		bhi	.L14
 381 0126 3E4B     		ldr	r3, .L32+32
 382 0128 3E4C     		ldr	r4, .L32+36
 383 012a 3F4E     		ldr	r6, .L32+40
 384 012c 3F4A     		ldr	r2, .L32+44
 385 012e FFF7FEFF 		bl	__gnu_thumb1_case_uqi
 386              	.L21:
 387 0132 03       		.byte	(.L15-.L21)/2
 388 0133 0E       		.byte	(.L16-.L21)/2
 389 0134 18       		.byte	(.L17-.L21)/2
 390 0135 27       		.byte	(.L18-.L21)/2
 391 0136 33       		.byte	(.L19-.L21)/2
 392 0137 3C       		.byte	(.L20-.L21)/2
 393              		.align	1
 394              	.L15:
 395 0138 0420     		mov	r0, #4
 396 013a D862     		str	r0, [r3, #44]
 397 013c 7D68     		ldr	r5, [r7, #4]
 398 013e 0023     		mov	r3, #0
 399 0140 E563     		str	r5, [r4, #60]
 400 0142 3968     		ldr	r1, [r7]
 401 0144 0131     		add	r1, r1, #1
 402 0146 6164     		str	r1, [r4, #68]
 403 0148 F363     		str	r3, [r6, #60]
 404 014a 7364     		str	r3, [r6, #68]
 405 014c 22E0     		b	.L30
 406              	.L16:
 407 014e 0220     		mov	r0, #2
 408 0150 D862     		str	r0, [r3, #44]
 409 0152 7D68     		ldr	r5, [r7, #4]
 410 0154 E563     		str	r5, [r4, #60]
 411 0156 3968     		ldr	r1, [r7]
 412 0158 0131     		add	r1, r1, #1
 413 015a 6164     		str	r1, [r4, #68]
 414 015c 0021     		mov	r1, #0
 415 015e F163     		str	r1, [r6, #60]
 416 0160 08E0     		b	.L28
 417              	.L17:
 418 0162 0125     		mov	r5, #1
 419 0164 0021     		mov	r1, #0
 420 0166 DD62     		str	r5, [r3, #44]
 421 0168 E163     		str	r1, [r4, #60]
 422 016a 3B68     		ldr	r3, [r7]
 423 016c 0133     		add	r3, r3, #1
 424 016e 6364     		str	r3, [r4, #68]
 425 0170 7C68     		ldr	r4, [r7, #4]
 426 0172 F463     		str	r4, [r6, #60]
 427              	.L28:
 428 0174 3B68     		ldr	r3, [r7]
 429 0176 0133     		add	r3, r3, #1
 430 0178 7364     		str	r3, [r6, #68]
 431 017a D163     		str	r1, [r2, #60]
 432 017c 5164     		str	r1, [r2, #68]
 433 017e 22E0     		b	.L14
 434              	.L18:
 435 0180 0421     		mov	r1, #4
 436 0182 D962     		str	r1, [r3, #44]
 437 0184 0023     		mov	r3, #0
 438 0186 E363     		str	r3, [r4, #60]
 439 0188 6364     		str	r3, [r4, #68]
 440 018a 7C68     		ldr	r4, [r7, #4]
 441 018c F463     		str	r4, [r6, #60]
 442 018e 3868     		ldr	r0, [r7]
 443 0190 0130     		add	r0, r0, #1
 444 0192 7064     		str	r0, [r6, #68]
 445              	.L30:
 446 0194 D363     		str	r3, [r2, #60]
 447 0196 13E0     		b	.L26
 448              	.L19:
 449 0198 0025     		mov	r5, #0
 450 019a 0220     		mov	r0, #2
 451 019c D862     		str	r0, [r3, #44]
 452 019e E563     		str	r5, [r4, #60]
 453 01a0 6564     		str	r5, [r4, #68]
 454 01a2 F563     		str	r5, [r6, #60]
 455 01a4 3B68     		ldr	r3, [r7]
 456 01a6 0133     		add	r3, r3, #1
 457 01a8 07E0     		b	.L27
 458              	.L20:
 459 01aa 0120     		mov	r0, #1
 460 01ac D862     		str	r0, [r3, #44]
 461 01ae 0023     		mov	r3, #0
 462 01b0 E363     		str	r3, [r4, #60]
 463 01b2 3D68     		ldr	r5, [r7]
 464 01b4 0135     		add	r5, r5, #1
 465 01b6 6564     		str	r5, [r4, #68]
 466 01b8 F363     		str	r3, [r6, #60]
 467              	.L27:
 468 01ba 7364     		str	r3, [r6, #68]
 469 01bc 7E68     		ldr	r6, [r7, #4]
 470 01be D663     		str	r6, [r2, #60]
 471              	.L26:
 472 01c0 3C68     		ldr	r4, [r7]
 473 01c2 0134     		add	r4, r4, #1
 474 01c4 5464     		str	r4, [r2, #68]
 475              	.L14:
 476 01c6 7968     		ldr	r1, [r7, #4]
 477 01c8 194A     		ldr	r2, .L32+48
 478 01ca 0139     		sub	r1, r1, #1
 479 01cc D163     		str	r1, [r2, #60]
 480 01ce 7F68     		ldr	r7, [r7, #4]
 481 01d0 A020     		mov	r0, #160
 482 01d2 013F     		sub	r7, r7, #1
 483 01d4 5764     		str	r7, [r2, #68]
 484 01d6 C305     		lsl	r3, r0, #23
 485 01d8 1D69     		ldr	r5, [r3, #16]
 486 01da 164E     		ldr	r6, .L32+52
 487 01dc 3543     		orr	r5, r6
 488 01de 1D61     		str	r5, [r3, #16]
 489              	.L22:
 490 01e0 9C69     		ldr	r4, [r3, #24]
 491 01e2 3442     		tst	r4, r6
 492 01e4 FCD1     		bne	.L22
 493              	.L29:
 494 01e6 1848     		ldr	r0, .L32+72
 495 01e8 1024     		mov	r4, #16
 496 01ea 0268     		ldr	r2, [r0]
 497 01ec 2243     		orr	r2, r4
 498 01ee 0260     		str	r2, [r0]
 499 01f0 01E0     		b	.L4
 500              	.L5:
 501 01f2 0120     		mov	r0, #1
 502 01f4 6072     		strb	r0, [r4, #9]
 503              	.L4:
 504 01f6 05B0     		add	sp, sp, #20
 505              		@ sp needed for prologue
 506 01f8 F0BD     		pop	{r4, r5, r6, r7, pc}
 507              	.L33:
 508 01fa C046C046 		.align	3
 508      C046
 509              	.L32:
 510 0200 9A999999 		.word	-1717986918
 511 0204 9999D93F 		.word	1071225241
 512 0208 9A999999 		.word	-1717986918
 513 020c 9999C93F 		.word	1070176665
 514 0210 00000000 		.word	0
 515 0214 00005240 		.word	1079115776
 516 0218 00000000 		.word	.LANCHOR1
 517 021c 00000000 		.word	.LANCHOR0
 518 0220 FC040348 		.word	1208157436
 519 0224 00010050 		.word	1342177536
 520 0228 00020050 		.word	1342177792
 521 022c 00030050 		.word	1342178048
 522 0230 00040050 		.word	1342178304
 523 0234 11110000 		.word	4369
 524 0238 93620000 		.word	25235
 525 023c 00010448 		.word	1208221952
 526 0240 FFFF0000 		.word	65535
 527 0244 00000448 		.word	1208221696
 528 0248 A4040050 		.word	1342178468
 530 024c C046C046 		.section	.text.GetPhaseState,"ax",%progbits
 531              		.align	1
 532              		.global	GetPhaseState
 533              		.code	16
 534              		.thumb_func
 536              	GetPhaseState:
 537 0000 014B     		ldr	r3, .L35
 538              		@ sp needed for prologue
 539 0002 187C     		ldrb	r0, [r3, #16]
 540 0004 7047     		bx	lr
 541              	.L36:
 542 0006 C046     		.align	2
 543              	.L35:
 544 0008 00000000 		.word	.LANCHOR1
 546              		.section	.text.StartMotor,"ax",%progbits
 547              		.align	1
 548              		.global	StartMotor
 549              		.code	16
 550              		.thumb_func
 552              	StartMotor:
 553 0000 0B4A     		ldr	r2, .L39
 554 0002 10B5     		push	{r4, lr}
 555 0004 517A     		ldrb	r1, [r2, #9]
 556 0006 0029     		cmp	r1, #0
 557 0008 11D1     		bne	.L37
 558 000a 0A4B     		ldr	r3, .L39+4
 559 000c 8020     		mov	r0, #128
 560 000e 1C6B     		ldr	r4, [r3, #48]
 561 0010 4000     		lsl	r0, r0, #1
 562 0012 2043     		orr	r0, r4
 563 0014 1863     		str	r0, [r3, #48]
 564 0016 1C6B     		ldr	r4, [r3, #48]
 565 0018 0748     		ldr	r0, .L39+8
 566 001a 2040     		and	r0, r4
 567 001c 1863     		str	r0, [r3, #48]
 568 001e 0748     		ldr	r0, .L39+12
 569 0020 0123     		mov	r3, #1
 570 0022 C468     		ldr	r4, [r0, #12]
 571 0024 1C43     		orr	r4, r3
 572 0026 C460     		str	r4, [r0, #12]
 573 0028 1172     		strb	r1, [r2, #8]
 574 002a 054A     		ldr	r2, .L39+16
 575 002c 1372     		strb	r3, [r2, #8]
 576              	.L37:
 577              		@ sp needed for prologue
 578 002e 10BD     		pop	{r4, pc}
 579              	.L40:
 580              		.align	2
 581              	.L39:
 582 0030 00000000 		.word	.LANCHOR1
 583 0034 00000140 		.word	1073807360
 584 0038 FFFEFFFF 		.word	-257
 585 003c 00010448 		.word	1208221952
 586 0040 00000000 		.word	.LANCHOR0
 588              		.section	.text.StopMotor,"ax",%progbits
 589              		.align	1
 590              		.global	StopMotor
 591              		.code	16
 592              		.thumb_func
 594              	StopMotor:
 595 0000 70B5     		push	{r4, r5, r6, lr}
 596 0002 154C     		ldr	r4, .L46
 597 0004 637A     		ldrb	r3, [r4, #9]
 598 0006 002B     		cmp	r3, #0
 599 0008 24D0     		beq	.L41
 600 000a 144D     		ldr	r5, .L46+4
 601 000c 2068     		ldr	r0, [r4]
 602 000e 6E68     		ldr	r6, [r5, #4]
 603 0010 FFF7FEFF 		bl	__aeabi_ui2f
 604 0014 311C     		add	r1, r6, #0
 605 0016 FFF7FEFF 		bl	__aeabi_fmul
 606 001a FFF7FEFF 		bl	__aeabi_f2uiz
 607 001e 104A     		ldr	r2, .L46+8
 608 0020 6060     		str	r0, [r4, #4]
 609 0022 1169     		ldr	r1, [r2, #16]
 610 0024 0320     		mov	r0, #3
 611 0026 0143     		orr	r1, r0
 612 0028 0E4B     		ldr	r3, .L46+12
 613 002a 1161     		str	r1, [r2, #16]
 614 002c 1E69     		ldr	r6, [r3, #16]
 615 002e 0E4A     		ldr	r2, .L46+16
 616 0030 0643     		orr	r6, r0
 617 0032 1E61     		str	r6, [r3, #16]
 618 0034 1169     		ldr	r1, [r2, #16]
 619 0036 0D4B     		ldr	r3, .L46+20
 620 0038 0143     		orr	r1, r0
 621 003a 1161     		str	r1, [r2, #16]
 622 003c 1E69     		ldr	r6, [r3, #16]
 623 003e 0C4A     		ldr	r2, .L46+24
 624 0040 0643     		orr	r6, r0
 625 0042 1E61     		str	r6, [r3, #16]
 626 0044 1169     		ldr	r1, [r2, #16]
 627 0046 0843     		orr	r0, r1
 628 0048 1061     		str	r0, [r2, #16]
 629 004a 0020     		mov	r0, #0
 630 004c 6072     		strb	r0, [r4, #9]
 631 004e 2072     		strb	r0, [r4, #8]
 632 0050 0124     		mov	r4, #1
 633 0052 2C72     		strb	r4, [r5, #8]
 634              	.L41:
 635              		@ sp needed for prologue
 636 0054 70BD     		pop	{r4, r5, r6, pc}
 637              	.L47:
 638 0056 C046     		.align	2
 639              	.L46:
 640 0058 00000000 		.word	.LANCHOR1
 641 005c 00000000 		.word	.LANCHOR0
 642 0060 00010448 		.word	1208221952
 643 0064 00010050 		.word	1342177536
 644 0068 00020050 		.word	1342177792
 645 006c 00030050 		.word	1342178048
 646 0070 00040050 		.word	1342178304
 648              		.section	.text.SetReferenceCurrent,"ax",%progbits
 649              		.align	1
 650              		.global	SetReferenceCurrent
 651              		.code	16
 652              		.thumb_func
 654              	SetReferenceCurrent:
 655 0000 38B5     		push	{r3, r4, r5, lr}
 656 0002 0C4C     		ldr	r4, .L56
 657 0004 051C     		mov	r5, r0
 658 0006 637A     		ldrb	r3, [r4, #9]
 659 0008 002B     		cmp	r3, #0
 660 000a 04D1     		bne	.L49
 661 000c 7D28     		cmp	r0, #125
 662 000e 02D9     		bls	.L49
 663 0010 FFF7FEFF 		bl	StartMotor
 664 0014 06E0     		b	.L50
 665              	.L49:
 666 0016 607A     		ldrb	r0, [r4, #9]
 667 0018 0028     		cmp	r0, #0
 668 001a 03D0     		beq	.L50
 669 001c 7D2D     		cmp	r5, #125
 670 001e 01D8     		bhi	.L50
 671 0020 FFF7FEFF 		bl	StopMotor
 672              	.L50:
 673 0024 617A     		ldrb	r1, [r4, #9]
 674 0026 0020     		mov	r0, #0
 675 0028 0229     		cmp	r1, #2
 676 002a 01D1     		bne	.L51
 677 002c 6560     		str	r5, [r4, #4]
 678 002e 0120     		mov	r0, #1
 679              	.L51:
 680              		@ sp needed for prologue
 681 0030 38BD     		pop	{r3, r4, r5, pc}
 682              	.L57:
 683 0032 C046     		.align	2
 684              	.L56:
 685 0034 00000000 		.word	.LANCHOR1
 687              		.global	OpenLoopLock
 688              		.global	OpenLoopFinish
 689              		.global	motorState
 690              		.global	PhaseState
 691              		.global	InnerPWMCompare
 692              		.global	InnerPWMPeriod
 693              		.global	CurrentDutyCycleStart
 694              		.global	InnerPWMFreq
 695              		.data
 696              		.align	2
 697              		.set	.LANCHOR0,. + 0
 700              	InnerPWMFreq:
 701 0000 0050C346 		.word	1187205120
 704              	CurrentDutyCycleStart:
 705 0004 CDCCCC3D 		.word	1036831949
 708              	OpenLoopLock:
 709 0008 01       		.byte	1
 710 0009 000000   		.bss
 711              		.align	2
 712              		.set	.LANCHOR1,. + 0
 715              	InnerPWMPeriod:
 716 0000 00000000 		.space	4
 719              	InnerPWMCompare:
 720 0004 00000000 		.space	4
 723              	OpenLoopFinish:
 724 0008 00       		.space	1
 727              	motorState:
 728 0009 00       		.space	1
 729 000a 0000     		.space	2
 732              	openloopCNT.5561:
 733 000c 00000000 		.space	4
 736              	PhaseState:
 737 0010 00       		.space	1
 738 0011 000000   		.ident	"GCC: (GNU Tools for ARM Embedded Processors) 4.7.4 20130913 (release) [ARM/embedded-4_7-br
DEFINED SYMBOLS
                            *ABS*:00000000 BlockCommutation.c
C:\Users\SteurerE\AppData\Local\Temp\ccng4Q3z.s:22     .text.InitBlockCommutation:00000000 $t
C:\Users\SteurerE\AppData\Local\Temp\ccng4Q3z.s:27     .text.InitBlockCommutation:00000000 InitBlockCommutation
C:\Users\SteurerE\AppData\Local\Temp\ccng4Q3z.s:210    .text.InitBlockCommutation:00000178 $d
C:\Users\SteurerE\AppData\Local\Temp\ccng4Q3z.s:232    .text.CCU40_0_IRQHandler:00000000 $t
C:\Users\SteurerE\AppData\Local\Temp\ccng4Q3z.s:237    .text.CCU40_0_IRQHandler:00000000 CCU40_0_IRQHandler
C:\Users\SteurerE\AppData\Local\Temp\ccng4Q3z.s:387    .text.CCU40_0_IRQHandler:00000132 $d
C:\Users\SteurerE\AppData\Local\Temp\ccng4Q3z.s:393    .text.CCU40_0_IRQHandler:00000138 $t
C:\Users\SteurerE\AppData\Local\Temp\ccng4Q3z.s:510    .text.CCU40_0_IRQHandler:00000200 $d
C:\Users\SteurerE\AppData\Local\Temp\ccng4Q3z.s:531    .text.GetPhaseState:00000000 $t
C:\Users\SteurerE\AppData\Local\Temp\ccng4Q3z.s:536    .text.GetPhaseState:00000000 GetPhaseState
C:\Users\SteurerE\AppData\Local\Temp\ccng4Q3z.s:544    .text.GetPhaseState:00000008 $d
C:\Users\SteurerE\AppData\Local\Temp\ccng4Q3z.s:547    .text.StartMotor:00000000 $t
C:\Users\SteurerE\AppData\Local\Temp\ccng4Q3z.s:552    .text.StartMotor:00000000 StartMotor
C:\Users\SteurerE\AppData\Local\Temp\ccng4Q3z.s:582    .text.StartMotor:00000030 $d
C:\Users\SteurerE\AppData\Local\Temp\ccng4Q3z.s:589    .text.StopMotor:00000000 $t
C:\Users\SteurerE\AppData\Local\Temp\ccng4Q3z.s:594    .text.StopMotor:00000000 StopMotor
C:\Users\SteurerE\AppData\Local\Temp\ccng4Q3z.s:640    .text.StopMotor:00000058 $d
C:\Users\SteurerE\AppData\Local\Temp\ccng4Q3z.s:649    .text.SetReferenceCurrent:00000000 $t
C:\Users\SteurerE\AppData\Local\Temp\ccng4Q3z.s:654    .text.SetReferenceCurrent:00000000 SetReferenceCurrent
C:\Users\SteurerE\AppData\Local\Temp\ccng4Q3z.s:685    .text.SetReferenceCurrent:00000034 $d
C:\Users\SteurerE\AppData\Local\Temp\ccng4Q3z.s:708    .data:00000008 OpenLoopLock
C:\Users\SteurerE\AppData\Local\Temp\ccng4Q3z.s:723    .bss:00000008 OpenLoopFinish
C:\Users\SteurerE\AppData\Local\Temp\ccng4Q3z.s:727    .bss:00000009 motorState
C:\Users\SteurerE\AppData\Local\Temp\ccng4Q3z.s:736    .bss:00000010 PhaseState
C:\Users\SteurerE\AppData\Local\Temp\ccng4Q3z.s:719    .bss:00000004 InnerPWMCompare
C:\Users\SteurerE\AppData\Local\Temp\ccng4Q3z.s:715    .bss:00000000 InnerPWMPeriod
C:\Users\SteurerE\AppData\Local\Temp\ccng4Q3z.s:704    .data:00000004 CurrentDutyCycleStart
C:\Users\SteurerE\AppData\Local\Temp\ccng4Q3z.s:700    .data:00000000 InnerPWMFreq
C:\Users\SteurerE\AppData\Local\Temp\ccng4Q3z.s:696    .data:00000000 $d
C:\Users\SteurerE\AppData\Local\Temp\ccng4Q3z.s:711    .bss:00000000 $d
C:\Users\SteurerE\AppData\Local\Temp\ccng4Q3z.s:732    .bss:0000000c openloopCNT.5561
C:\Users\SteurerE\AppData\Local\Temp\ccng4Q3z.s:530    .text.CCU40_0_IRQHandler:0000024c $t

UNDEFINED SYMBOLS
__aeabi_f2d
__aeabi_dmul
__aeabi_ddiv
__aeabi_d2uiz
__aeabi_ui2f
__aeabi_fmul
__aeabi_f2uiz
__aeabi_ui2d
__aeabi_dsub
__gnu_thumb1_case_uqi
