   1              		.syntax unified
   2              		.cpu cortex-m4
   3              		.eabi_attribute 27, 3
   4              		.fpu fpv4-sp-d16
   5              		.eabi_attribute 20, 1
   6              		.eabi_attribute 21, 1
   7              		.eabi_attribute 23, 3
   8              		.eabi_attribute 24, 1
   9              		.eabi_attribute 25, 1
  10              		.eabi_attribute 26, 1
  11              		.eabi_attribute 30, 6
  12              		.eabi_attribute 34, 1
  13              		.eabi_attribute 18, 4
  14              		.thumb
  15              		.file	"BluetoothProtocol.c"
  16              		.text
  17              	.Ltext0:
  18              		.cfi_sections	.debug_frame
  19              		.comm	control_value,28,4
  20              		.comm	dpacket,43,4
  21              		.comm	ReadBufBT,4,4
  22              		.section	.text.initBluetoothStorage,"ax",%progbits
  23              		.align	2
  24              		.global	initBluetoothStorage
  25              		.thumb
  26              		.thumb_func
  28              	initBluetoothStorage:
  29              	.LFB120:
  30              		.file 1 "../_Quadrocopter/RemoteControl/BluetoothProtocol/BluetoothProtocol.c"
   1:../_Quadrocopter/RemoteControl/BluetoothProtocol/BluetoothProtocol.c **** /*
   2:../_Quadrocopter/RemoteControl/BluetoothProtocol/BluetoothProtocol.c ****  * BluetoothProtocol.c
   3:../_Quadrocopter/RemoteControl/BluetoothProtocol/BluetoothProtocol.c ****  *
   4:../_Quadrocopter/RemoteControl/BluetoothProtocol/BluetoothProtocol.c ****  *  Created on: 30.01.2015
   5:../_Quadrocopter/RemoteControl/BluetoothProtocol/BluetoothProtocol.c ****  *  modified on: 08.04.2016
   6:../_Quadrocopter/RemoteControl/BluetoothProtocol/BluetoothProtocol.c ****  *      Author: SteurerE
   7:../_Quadrocopter/RemoteControl/BluetoothProtocol/BluetoothProtocol.c ****  */
   8:../_Quadrocopter/RemoteControl/BluetoothProtocol/BluetoothProtocol.c **** #include "BluetoothProtocol.h"
   9:../_Quadrocopter/RemoteControl/BluetoothProtocol/BluetoothProtocol.c **** 
  10:../_Quadrocopter/RemoteControl/BluetoothProtocol/BluetoothProtocol.c **** ControlValue control_value;
  11:../_Quadrocopter/RemoteControl/BluetoothProtocol/BluetoothProtocol.c **** DataPacket dpacket;
  12:../_Quadrocopter/RemoteControl/BluetoothProtocol/BluetoothProtocol.c **** uint8_t* ReadBufBT;
  13:../_Quadrocopter/RemoteControl/BluetoothProtocol/BluetoothProtocol.c **** 
  14:../_Quadrocopter/RemoteControl/BluetoothProtocol/BluetoothProtocol.c **** void initBluetoothStorage()
  15:../_Quadrocopter/RemoteControl/BluetoothProtocol/BluetoothProtocol.c **** {
  31              		.loc 1 15 0
  32              		.cfi_startproc
  33              		@ args = 0, pretend = 0, frame = 0
  34              		@ frame_needed = 1, uses_anonymous_args = 0
  35 0000 80B5     		push	{r7, lr}
  36              	.LCFI0:
  37              		.cfi_def_cfa_offset 8
  38              		.cfi_offset 7, -8
  39              		.cfi_offset 14, -4
  40 0002 00AF     		add	r7, sp, #0
  41              	.LCFI1:
  42              		.cfi_def_cfa_register 7
  16:../_Quadrocopter/RemoteControl/BluetoothProtocol/BluetoothProtocol.c **** 	ReadBufBT = malloc(sizeof(uint8_t)*BLUETOOTH_INPUT_BUFFER);
  43              		.loc 1 16 0
  44 0004 4FF02000 		mov	r0, #32
  45 0008 FFF7FEFF 		bl	malloc
  46 000c 0346     		mov	r3, r0
  47 000e 1A46     		mov	r2, r3
  48 0010 40F20003 		movw	r3, #:lower16:ReadBufBT
  49 0014 C0F20003 		movt	r3, #:upper16:ReadBufBT
  50 0018 1A60     		str	r2, [r3, #0]
  17:../_Quadrocopter/RemoteControl/BluetoothProtocol/BluetoothProtocol.c **** 	control_value.header = malloc(sizeof(uint8_t));
  51              		.loc 1 17 0
  52 001a 4FF00100 		mov	r0, #1
  53 001e FFF7FEFF 		bl	malloc
  54 0022 0346     		mov	r3, r0
  55 0024 1A46     		mov	r2, r3
  56 0026 40F20003 		movw	r3, #:lower16:control_value
  57 002a C0F20003 		movt	r3, #:upper16:control_value
  58 002e 1A60     		str	r2, [r3, #0]
  18:../_Quadrocopter/RemoteControl/BluetoothProtocol/BluetoothProtocol.c **** 	control_value.height_control = malloc(sizeof(uint8_t));
  59              		.loc 1 18 0
  60 0030 4FF00100 		mov	r0, #1
  61 0034 FFF7FEFF 		bl	malloc
  62 0038 0346     		mov	r3, r0
  63 003a 1A46     		mov	r2, r3
  64 003c 40F20003 		movw	r3, #:lower16:control_value
  65 0040 C0F20003 		movt	r3, #:upper16:control_value
  66 0044 5A60     		str	r2, [r3, #4]
  19:../_Quadrocopter/RemoteControl/BluetoothProtocol/BluetoothProtocol.c **** 	control_value.speed = malloc(sizeof(uint8_t));
  67              		.loc 1 19 0
  68 0046 4FF00100 		mov	r0, #1
  69 004a FFF7FEFF 		bl	malloc
  70 004e 0346     		mov	r3, r0
  71 0050 1A46     		mov	r2, r3
  72 0052 40F20003 		movw	r3, #:lower16:control_value
  73 0056 C0F20003 		movt	r3, #:upper16:control_value
  74 005a 9A60     		str	r2, [r3, #8]
  20:../_Quadrocopter/RemoteControl/BluetoothProtocol/BluetoothProtocol.c **** 	control_value.x_pitch = malloc(sizeof(float));
  75              		.loc 1 20 0
  76 005c 4FF00400 		mov	r0, #4
  77 0060 FFF7FEFF 		bl	malloc
  78 0064 0346     		mov	r3, r0
  79 0066 1A46     		mov	r2, r3
  80 0068 40F20003 		movw	r3, #:lower16:control_value
  81 006c C0F20003 		movt	r3, #:upper16:control_value
  82 0070 1A61     		str	r2, [r3, #16]
  21:../_Quadrocopter/RemoteControl/BluetoothProtocol/BluetoothProtocol.c **** 	control_value.y_roll = malloc(sizeof(float));
  83              		.loc 1 21 0
  84 0072 4FF00400 		mov	r0, #4
  85 0076 FFF7FEFF 		bl	malloc
  86 007a 0346     		mov	r3, r0
  87 007c 1A46     		mov	r2, r3
  88 007e 40F20003 		movw	r3, #:lower16:control_value
  89 0082 C0F20003 		movt	r3, #:upper16:control_value
  90 0086 5A61     		str	r2, [r3, #20]
  22:../_Quadrocopter/RemoteControl/BluetoothProtocol/BluetoothProtocol.c **** 	control_value.z_rotate = malloc(sizeof(float));
  91              		.loc 1 22 0
  92 0088 4FF00400 		mov	r0, #4
  93 008c FFF7FEFF 		bl	malloc
  94 0090 0346     		mov	r3, r0
  95 0092 1A46     		mov	r2, r3
  96 0094 40F20003 		movw	r3, #:lower16:control_value
  97 0098 C0F20003 		movt	r3, #:upper16:control_value
  98 009c DA60     		str	r2, [r3, #12]
  23:../_Quadrocopter/RemoteControl/BluetoothProtocol/BluetoothProtocol.c **** 	control_value.checksum = malloc(sizeof(uint32_t));
  99              		.loc 1 23 0
 100 009e 4FF00400 		mov	r0, #4
 101 00a2 FFF7FEFF 		bl	malloc
 102 00a6 0346     		mov	r3, r0
 103 00a8 1A46     		mov	r2, r3
 104 00aa 40F20003 		movw	r3, #:lower16:control_value
 105 00ae C0F20003 		movt	r3, #:upper16:control_value
 106 00b2 9A61     		str	r2, [r3, #24]
  24:../_Quadrocopter/RemoteControl/BluetoothProtocol/BluetoothProtocol.c **** }
 107              		.loc 1 24 0
 108 00b4 80BD     		pop	{r7, pc}
 109              		.cfi_endproc
 110              	.LFE120:
 112 00b6 00BF     		.section	.text.maintainBluetoothInputBuffer,"ax",%progbits
 113              		.align	2
 114              		.global	maintainBluetoothInputBuffer
 115              		.thumb
 116              		.thumb_func
 118              	maintainBluetoothInputBuffer:
 119              	.LFB121:
  25:../_Quadrocopter/RemoteControl/BluetoothProtocol/BluetoothProtocol.c **** 
  26:../_Quadrocopter/RemoteControl/BluetoothProtocol/BluetoothProtocol.c **** status_t maintainBluetoothInputBuffer(
  27:../_Quadrocopter/RemoteControl/BluetoothProtocol/BluetoothProtocol.c **** 		uint8_t input_buffer[BLUETOOTH_INPUT_BUFFER],
  28:../_Quadrocopter/RemoteControl/BluetoothProtocol/BluetoothProtocol.c **** 		ControlValue *control_value, DataPacket* packet)
  29:../_Quadrocopter/RemoteControl/BluetoothProtocol/BluetoothProtocol.c **** {
 120              		.loc 1 29 0
 121              		.cfi_startproc
 122              		@ args = 0, pretend = 0, frame = 40
 123              		@ frame_needed = 1, uses_anonymous_args = 0
 124 0000 80B5     		push	{r7, lr}
 125              	.LCFI2:
 126              		.cfi_def_cfa_offset 8
 127              		.cfi_offset 7, -8
 128              		.cfi_offset 14, -4
 129 0002 8AB0     		sub	sp, sp, #40
 130              	.LCFI3:
 131              		.cfi_def_cfa_offset 48
 132 0004 00AF     		add	r7, sp, #0
 133              	.LCFI4:
 134              		.cfi_def_cfa_register 7
 135 0006 F860     		str	r0, [r7, #12]
 136 0008 B960     		str	r1, [r7, #8]
 137 000a 7A60     		str	r2, [r7, #4]
  30:../_Quadrocopter/RemoteControl/BluetoothProtocol/BluetoothProtocol.c **** 	static int packet_counter = 0;
  31:../_Quadrocopter/RemoteControl/BluetoothProtocol/BluetoothProtocol.c **** 	static int packets_to_be_received = 0;
  32:../_Quadrocopter/RemoteControl/BluetoothProtocol/BluetoothProtocol.c **** 	uint32_t checksum;
  33:../_Quadrocopter/RemoteControl/BluetoothProtocol/BluetoothProtocol.c **** 	checksum = input_buffer[0];
 138              		.loc 1 33 0
 139 000c FB68     		ldr	r3, [r7, #12]
 140 000e 1B78     		ldrb	r3, [r3, #0]	@ zero_extendqisi2
 141 0010 7B62     		str	r3, [r7, #36]
  34:../_Quadrocopter/RemoteControl/BluetoothProtocol/BluetoothProtocol.c **** 	checksum ^= ((input_buffer[1] << 8 | input_buffer[2]) & 0xFFFF);
 142              		.loc 1 34 0
 143 0012 FB68     		ldr	r3, [r7, #12]
 144 0014 03F10103 		add	r3, r3, #1
 145 0018 1B78     		ldrb	r3, [r3, #0]	@ zero_extendqisi2
 146 001a 4FEA0322 		lsl	r2, r3, #8
 147 001e FB68     		ldr	r3, [r7, #12]
 148 0020 03F10203 		add	r3, r3, #2
 149 0024 1B78     		ldrb	r3, [r3, #0]	@ zero_extendqisi2
 150 0026 1343     		orrs	r3, r3, r2
 151 0028 4FEA0343 		lsl	r3, r3, #16
 152 002c 4FEA1343 		lsr	r3, r3, #16
 153 0030 7A6A     		ldr	r2, [r7, #36]
 154 0032 5340     		eors	r3, r3, r2
 155 0034 7B62     		str	r3, [r7, #36]
 156              	.LBB2:
  35:../_Quadrocopter/RemoteControl/BluetoothProtocol/BluetoothProtocol.c **** 	for (int i = 3; i < (PACKET_SIZE - PACKET_CHECKSUM) - 1; i += 4)
 157              		.loc 1 35 0
 158 0036 4FF00303 		mov	r3, #3
 159 003a 3B62     		str	r3, [r7, #32]
 160 003c 25E0     		b	.L3
 161              	.L4:
  36:../_Quadrocopter/RemoteControl/BluetoothProtocol/BluetoothProtocol.c **** 	{
  37:../_Quadrocopter/RemoteControl/BluetoothProtocol/BluetoothProtocol.c **** 		checksum ^= (input_buffer[i] << 24 | input_buffer[i + 1] << 16
 162              		.loc 1 37 0 discriminator 2
 163 003e 3B6A     		ldr	r3, [r7, #32]
 164 0040 FA68     		ldr	r2, [r7, #12]
 165 0042 D318     		adds	r3, r2, r3
 166 0044 1B78     		ldrb	r3, [r3, #0]	@ zero_extendqisi2
 167 0046 4FEA0362 		lsl	r2, r3, #24
 168 004a 3B6A     		ldr	r3, [r7, #32]
 169 004c 03F10103 		add	r3, r3, #1
 170 0050 F968     		ldr	r1, [r7, #12]
 171 0052 CB18     		adds	r3, r1, r3
 172 0054 1B78     		ldrb	r3, [r3, #0]	@ zero_extendqisi2
 173 0056 4FEA0343 		lsl	r3, r3, #16
 174 005a 1A43     		orrs	r2, r2, r3
  38:../_Quadrocopter/RemoteControl/BluetoothProtocol/BluetoothProtocol.c **** 				| input_buffer[i + 2] << 8 | input_buffer[i + 3]);
 175              		.loc 1 38 0 discriminator 2
 176 005c 3B6A     		ldr	r3, [r7, #32]
 177 005e 03F10203 		add	r3, r3, #2
 178 0062 F968     		ldr	r1, [r7, #12]
 179 0064 CB18     		adds	r3, r1, r3
 180 0066 1B78     		ldrb	r3, [r3, #0]	@ zero_extendqisi2
 181 0068 4FEA0323 		lsl	r3, r3, #8
 182 006c 1A43     		orrs	r2, r2, r3
 183 006e 3B6A     		ldr	r3, [r7, #32]
 184 0070 03F10303 		add	r3, r3, #3
 185 0074 F968     		ldr	r1, [r7, #12]
 186 0076 CB18     		adds	r3, r1, r3
 187 0078 1B78     		ldrb	r3, [r3, #0]	@ zero_extendqisi2
 188 007a 1343     		orrs	r3, r3, r2
  37:../_Quadrocopter/RemoteControl/BluetoothProtocol/BluetoothProtocol.c **** 		checksum ^= (input_buffer[i] << 24 | input_buffer[i + 1] << 16
 189              		.loc 1 37 0 discriminator 2
 190 007c 7A6A     		ldr	r2, [r7, #36]
 191 007e 5340     		eors	r3, r3, r2
 192 0080 7B62     		str	r3, [r7, #36]
  35:../_Quadrocopter/RemoteControl/BluetoothProtocol/BluetoothProtocol.c **** 	for (int i = 3; i < (PACKET_SIZE - PACKET_CHECKSUM) - 1; i += 4)
 193              		.loc 1 35 0 discriminator 2
 194 0082 3B6A     		ldr	r3, [r7, #32]
 195 0084 03F10403 		add	r3, r3, #4
 196 0088 3B62     		str	r3, [r7, #32]
 197              	.L3:
  35:../_Quadrocopter/RemoteControl/BluetoothProtocol/BluetoothProtocol.c **** 	for (int i = 3; i < (PACKET_SIZE - PACKET_CHECKSUM) - 1; i += 4)
 198              		.loc 1 35 0 is_stmt 0 discriminator 1
 199 008a 3B6A     		ldr	r3, [r7, #32]
 200 008c 0D2B     		cmp	r3, #13
 201 008e D6DD     		ble	.L4
 202              	.LBE2:
 203              	.LBB3:
  39:../_Quadrocopter/RemoteControl/BluetoothProtocol/BluetoothProtocol.c **** 	}
  40:../_Quadrocopter/RemoteControl/BluetoothProtocol/BluetoothProtocol.c **** 	for(int j = 0;j < 4;j++)
 204              		.loc 1 40 0 is_stmt 1
 205 0090 4FF00003 		mov	r3, #0
 206 0094 FB61     		str	r3, [r7, #28]
 207 0096 10E0     		b	.L5
 208              	.L6:
  41:../_Quadrocopter/RemoteControl/BluetoothProtocol/BluetoothProtocol.c **** 	{
  42:../_Quadrocopter/RemoteControl/BluetoothProtocol/BluetoothProtocol.c **** 		*((uint8_t*)(control_value->checksum) + 3-j) = input_buffer[15+j];
 209              		.loc 1 42 0 discriminator 2
 210 0098 BB68     		ldr	r3, [r7, #8]
 211 009a 9A69     		ldr	r2, [r3, #24]
 212 009c FB69     		ldr	r3, [r7, #28]
 213 009e C3F10303 		rsb	r3, r3, #3
 214 00a2 D318     		adds	r3, r2, r3
 215 00a4 FA69     		ldr	r2, [r7, #28]
 216 00a6 02F10F02 		add	r2, r2, #15
 217 00aa F968     		ldr	r1, [r7, #12]
 218 00ac 8A18     		adds	r2, r1, r2
 219 00ae 1278     		ldrb	r2, [r2, #0]	@ zero_extendqisi2
 220 00b0 1A70     		strb	r2, [r3, #0]
  40:../_Quadrocopter/RemoteControl/BluetoothProtocol/BluetoothProtocol.c **** 	for(int j = 0;j < 4;j++)
 221              		.loc 1 40 0 discriminator 2
 222 00b2 FB69     		ldr	r3, [r7, #28]
 223 00b4 03F10103 		add	r3, r3, #1
 224 00b8 FB61     		str	r3, [r7, #28]
 225              	.L5:
  40:../_Quadrocopter/RemoteControl/BluetoothProtocol/BluetoothProtocol.c **** 	for(int j = 0;j < 4;j++)
 226              		.loc 1 40 0 is_stmt 0 discriminator 1
 227 00ba FB69     		ldr	r3, [r7, #28]
 228 00bc 032B     		cmp	r3, #3
 229 00be EBDD     		ble	.L6
 230              	.LBE3:
  43:../_Quadrocopter/RemoteControl/BluetoothProtocol/BluetoothProtocol.c **** 	}
  44:../_Quadrocopter/RemoteControl/BluetoothProtocol/BluetoothProtocol.c **** 	control_value->header = (uint8_t*)&input_buffer[0];
 231              		.loc 1 44 0 is_stmt 1
 232 00c0 BB68     		ldr	r3, [r7, #8]
 233 00c2 FA68     		ldr	r2, [r7, #12]
 234 00c4 1A60     		str	r2, [r3, #0]
  45:../_Quadrocopter/RemoteControl/BluetoothProtocol/BluetoothProtocol.c **** 	if (*(control_value->checksum) == checksum)
 235              		.loc 1 45 0
 236 00c6 BB68     		ldr	r3, [r7, #8]
 237 00c8 9B69     		ldr	r3, [r3, #24]
 238 00ca 1A68     		ldr	r2, [r3, #0]
 239 00cc 7B6A     		ldr	r3, [r7, #36]
 240 00ce 9A42     		cmp	r2, r3
 241 00d0 40F0B280 		bne	.L7
  46:../_Quadrocopter/RemoteControl/BluetoothProtocol/BluetoothProtocol.c **** 	{
  47:../_Quadrocopter/RemoteControl/BluetoothProtocol/BluetoothProtocol.c **** 		if (*control_value->header)//Got a valid Data-Package
 242              		.loc 1 47 0
 243 00d4 BB68     		ldr	r3, [r7, #8]
 244 00d6 1B68     		ldr	r3, [r3, #0]
 245 00d8 1B78     		ldrb	r3, [r3, #0]	@ zero_extendqisi2
 246 00da 002B     		cmp	r3, #0
 247 00dc 6DD0     		beq	.L8
 248              	.LBB4:
  48:../_Quadrocopter/RemoteControl/BluetoothProtocol/BluetoothProtocol.c **** 			{
  49:../_Quadrocopter/RemoteControl/BluetoothProtocol/BluetoothProtocol.c **** 			if (packets_to_be_received == 0)
 249              		.loc 1 49 0
 250 00de 40F20003 		movw	r3, #:lower16:packets_to_be_received.11160
 251 00e2 C0F20003 		movt	r3, #:upper16:packets_to_be_received.11160
 252 00e6 1B68     		ldr	r3, [r3, #0]
 253 00e8 002B     		cmp	r3, #0
 254 00ea 07D1     		bne	.L9
  50:../_Quadrocopter/RemoteControl/BluetoothProtocol/BluetoothProtocol.c **** 			{
  51:../_Quadrocopter/RemoteControl/BluetoothProtocol/BluetoothProtocol.c **** 				packets_to_be_received = input_buffer[0];
 255              		.loc 1 51 0
 256 00ec FB68     		ldr	r3, [r7, #12]
 257 00ee 1B78     		ldrb	r3, [r3, #0]	@ zero_extendqisi2
 258 00f0 1A46     		mov	r2, r3
 259 00f2 40F20003 		movw	r3, #:lower16:packets_to_be_received.11160
 260 00f6 C0F20003 		movt	r3, #:upper16:packets_to_be_received.11160
 261 00fa 1A60     		str	r2, [r3, #0]
 262              	.L9:
  52:../_Quadrocopter/RemoteControl/BluetoothProtocol/BluetoothProtocol.c **** 			}
  53:../_Quadrocopter/RemoteControl/BluetoothProtocol/BluetoothProtocol.c **** 			int current_val = packet_counter;
 263              		.loc 1 53 0
 264 00fc 40F20003 		movw	r3, #:lower16:packet_counter.11159
 265 0100 C0F20003 		movt	r3, #:upper16:packet_counter.11159
 266 0104 1B68     		ldr	r3, [r3, #0]
 267 0106 7B61     		str	r3, [r7, #20]
  54:../_Quadrocopter/RemoteControl/BluetoothProtocol/BluetoothProtocol.c **** 			for (; packet_counter < (current_val + DATA_SIZE);
 268              		.loc 1 54 0
 269 0108 1EE0     		b	.L10
 270              	.L11:
  55:../_Quadrocopter/RemoteControl/BluetoothProtocol/BluetoothProtocol.c **** 				packet_counter++)
  56:../_Quadrocopter/RemoteControl/BluetoothProtocol/BluetoothProtocol.c **** 			{
  57:../_Quadrocopter/RemoteControl/BluetoothProtocol/BluetoothProtocol.c **** 				packet->cmd[packet_counter] = input_buffer[packet_counter
 271              		.loc 1 57 0
 272 010a 40F20003 		movw	r3, #:lower16:packet_counter.11159
 273 010e C0F20003 		movt	r3, #:upper16:packet_counter.11159
 274 0112 1A68     		ldr	r2, [r3, #0]
  58:../_Quadrocopter/RemoteControl/BluetoothProtocol/BluetoothProtocol.c **** 						- current_val + PACKET_HEADER];
 275              		.loc 1 58 0
 276 0114 40F20003 		movw	r3, #:lower16:packet_counter.11159
 277 0118 C0F20003 		movt	r3, #:upper16:packet_counter.11159
 278 011c 1968     		ldr	r1, [r3, #0]
 279 011e 7B69     		ldr	r3, [r7, #20]
 280 0120 CB1A     		subs	r3, r1, r3
  57:../_Quadrocopter/RemoteControl/BluetoothProtocol/BluetoothProtocol.c **** 				packet->cmd[packet_counter] = input_buffer[packet_counter
 281              		.loc 1 57 0
 282 0122 03F10103 		add	r3, r3, #1
 283 0126 F968     		ldr	r1, [r7, #12]
 284 0128 CB18     		adds	r3, r1, r3
 285 012a 1978     		ldrb	r1, [r3, #0]	@ zero_extendqisi2
 286 012c 7B68     		ldr	r3, [r7, #4]
 287 012e 9954     		strb	r1, [r3, r2]
  55:../_Quadrocopter/RemoteControl/BluetoothProtocol/BluetoothProtocol.c **** 				packet_counter++)
 288              		.loc 1 55 0
 289 0130 40F20003 		movw	r3, #:lower16:packet_counter.11159
 290 0134 C0F20003 		movt	r3, #:upper16:packet_counter.11159
 291 0138 1B68     		ldr	r3, [r3, #0]
 292 013a 03F10102 		add	r2, r3, #1
 293 013e 40F20003 		movw	r3, #:lower16:packet_counter.11159
 294 0142 C0F20003 		movt	r3, #:upper16:packet_counter.11159
 295 0146 1A60     		str	r2, [r3, #0]
 296              	.L10:
  54:../_Quadrocopter/RemoteControl/BluetoothProtocol/BluetoothProtocol.c **** 			for (; packet_counter < (current_val + DATA_SIZE);
 297              		.loc 1 54 0 discriminator 1
 298 0148 7B69     		ldr	r3, [r7, #20]
 299 014a 03F10E02 		add	r2, r3, #14
 300 014e 40F20003 		movw	r3, #:lower16:packet_counter.11159
 301 0152 C0F20003 		movt	r3, #:upper16:packet_counter.11159
 302 0156 1B68     		ldr	r3, [r3, #0]
 303 0158 9A42     		cmp	r2, r3
 304 015a D6DC     		bgt	.L11
  59:../_Quadrocopter/RemoteControl/BluetoothProtocol/BluetoothProtocol.c **** 			}
  60:../_Quadrocopter/RemoteControl/BluetoothProtocol/BluetoothProtocol.c **** 			if ((input_buffer[0]
 305              		.loc 1 60 0
 306 015c FB68     		ldr	r3, [r7, #12]
 307 015e 1B78     		ldrb	r3, [r3, #0]	@ zero_extendqisi2
 308 0160 0E2B     		cmp	r3, #14
 309 0162 20D8     		bhi	.L12
  61:../_Quadrocopter/RemoteControl/BluetoothProtocol/BluetoothProtocol.c **** 					<= (PACKET_SIZE - PACKET_HEADER - PACKET_CHECKSUM)))
  62:../_Quadrocopter/RemoteControl/BluetoothProtocol/BluetoothProtocol.c **** 			{ //all cmd-bytes are within this data-package
  63:../_Quadrocopter/RemoteControl/BluetoothProtocol/BluetoothProtocol.c **** 				packet->character_count = packets_to_be_received;
 310              		.loc 1 63 0
 311 0164 40F20003 		movw	r3, #:lower16:packets_to_be_received.11160
 312 0168 C0F20003 		movt	r3, #:upper16:packets_to_be_received.11160
 313 016c 1B68     		ldr	r3, [r3, #0]
 314 016e DAB2     		uxtb	r2, r3
 315 0170 7B68     		ldr	r3, [r7, #4]
 316 0172 83F82A20 		strb	r2, [r3, #42]
  64:../_Quadrocopter/RemoteControl/BluetoothProtocol/BluetoothProtocol.c **** 				packet_counter = 0;
 317              		.loc 1 64 0
 318 0176 40F20003 		movw	r3, #:lower16:packet_counter.11159
 319 017a C0F20003 		movt	r3, #:upper16:packet_counter.11159
 320 017e 4FF00002 		mov	r2, #0
 321 0182 1A60     		str	r2, [r3, #0]
  65:../_Quadrocopter/RemoteControl/BluetoothProtocol/BluetoothProtocol.c **** 				packets_to_be_received = 0;
 322              		.loc 1 65 0
 323 0184 40F20003 		movw	r3, #:lower16:packets_to_be_received.11160
 324 0188 C0F20003 		movt	r3, #:upper16:packets_to_be_received.11160
 325 018c 4FF00002 		mov	r2, #0
 326 0190 1A60     		str	r2, [r3, #0]
  66:../_Quadrocopter/RemoteControl/BluetoothProtocol/BluetoothProtocol.c **** 				//Cleanup Buffer//
  67:../_Quadrocopter/RemoteControl/BluetoothProtocol/BluetoothProtocol.c **** 				memset(input_buffer, 0x00,PACKET_SIZE);
 327              		.loc 1 67 0
 328 0192 F868     		ldr	r0, [r7, #12]
 329 0194 4FF00001 		mov	r1, #0
 330 0198 4FF01302 		mov	r2, #19
 331 019c FFF7FEFF 		bl	memset
  68:../_Quadrocopter/RemoteControl/BluetoothProtocol/BluetoothProtocol.c **** 				return RECEIVED_DATA_PACKET; //Got a complete and valid Data-Package
 332              		.loc 1 68 0
 333 01a0 4FF00103 		mov	r3, #1
 334 01a4 58E0     		b	.L13
 335              	.L12:
  69:../_Quadrocopter/RemoteControl/BluetoothProtocol/BluetoothProtocol.c **** 			} else {
  70:../_Quadrocopter/RemoteControl/BluetoothProtocol/BluetoothProtocol.c **** 				memset(input_buffer, 0x00,PACKET_SIZE);
 336              		.loc 1 70 0
 337 01a6 F868     		ldr	r0, [r7, #12]
 338 01a8 4FF00001 		mov	r1, #0
 339 01ac 4FF01302 		mov	r2, #19
 340 01b0 FFF7FEFF 		bl	memset
  71:../_Quadrocopter/RemoteControl/BluetoothProtocol/BluetoothProtocol.c **** 				return RECEIVED_DATA_PACKET_N_C; //must do another read operation
 341              		.loc 1 71 0
 342 01b4 4FF00203 		mov	r3, #2
 343 01b8 4EE0     		b	.L13
 344              	.L8:
 345              	.LBE4:
  72:../_Quadrocopter/RemoteControl/BluetoothProtocol/BluetoothProtocol.c **** 			}
  73:../_Quadrocopter/RemoteControl/BluetoothProtocol/BluetoothProtocol.c **** 		} else
  74:../_Quadrocopter/RemoteControl/BluetoothProtocol/BluetoothProtocol.c **** 		{
  75:../_Quadrocopter/RemoteControl/BluetoothProtocol/BluetoothProtocol.c **** 			*((uint8_t*)(control_value->height_control)) = input_buffer[1];
 346              		.loc 1 75 0
 347 01ba BB68     		ldr	r3, [r7, #8]
 348 01bc 5B68     		ldr	r3, [r3, #4]
 349 01be FA68     		ldr	r2, [r7, #12]
 350 01c0 5278     		ldrb	r2, [r2, #1]	@ zero_extendqisi2
 351 01c2 1A70     		strb	r2, [r3, #0]
  76:../_Quadrocopter/RemoteControl/BluetoothProtocol/BluetoothProtocol.c **** 			*((uint8_t*)(control_value->speed)) = input_buffer[2];
 352              		.loc 1 76 0
 353 01c4 BB68     		ldr	r3, [r7, #8]
 354 01c6 9B68     		ldr	r3, [r3, #8]
 355 01c8 FA68     		ldr	r2, [r7, #12]
 356 01ca 9278     		ldrb	r2, [r2, #2]	@ zero_extendqisi2
 357 01cc 1A70     		strb	r2, [r3, #0]
 358              	.LBB5:
  77:../_Quadrocopter/RemoteControl/BluetoothProtocol/BluetoothProtocol.c **** 			for(int k = 0;k < 4;k++)
 359              		.loc 1 77 0
 360 01ce 4FF00003 		mov	r3, #0
 361 01d2 BB61     		str	r3, [r7, #24]
 362 01d4 2AE0     		b	.L14
 363              	.L15:
  78:../_Quadrocopter/RemoteControl/BluetoothProtocol/BluetoothProtocol.c **** 			{
  79:../_Quadrocopter/RemoteControl/BluetoothProtocol/BluetoothProtocol.c **** 				*((uint8_t*)(control_value->z_rotate) + 3-k) = input_buffer[3+k];
 364              		.loc 1 79 0 discriminator 2
 365 01d6 BB68     		ldr	r3, [r7, #8]
 366 01d8 DA68     		ldr	r2, [r3, #12]
 367 01da BB69     		ldr	r3, [r7, #24]
 368 01dc C3F10303 		rsb	r3, r3, #3
 369 01e0 D318     		adds	r3, r2, r3
 370 01e2 BA69     		ldr	r2, [r7, #24]
 371 01e4 02F10302 		add	r2, r2, #3
 372 01e8 F968     		ldr	r1, [r7, #12]
 373 01ea 8A18     		adds	r2, r1, r2
 374 01ec 1278     		ldrb	r2, [r2, #0]	@ zero_extendqisi2
 375 01ee 1A70     		strb	r2, [r3, #0]
  80:../_Quadrocopter/RemoteControl/BluetoothProtocol/BluetoothProtocol.c **** 				*((uint8_t*)(control_value->x_pitch) + 3-k) = input_buffer[7+k];
 376              		.loc 1 80 0 discriminator 2
 377 01f0 BB68     		ldr	r3, [r7, #8]
 378 01f2 1A69     		ldr	r2, [r3, #16]
 379 01f4 BB69     		ldr	r3, [r7, #24]
 380 01f6 C3F10303 		rsb	r3, r3, #3
 381 01fa D318     		adds	r3, r2, r3
 382 01fc BA69     		ldr	r2, [r7, #24]
 383 01fe 02F10702 		add	r2, r2, #7
 384 0202 F968     		ldr	r1, [r7, #12]
 385 0204 8A18     		adds	r2, r1, r2
 386 0206 1278     		ldrb	r2, [r2, #0]	@ zero_extendqisi2
 387 0208 1A70     		strb	r2, [r3, #0]
  81:../_Quadrocopter/RemoteControl/BluetoothProtocol/BluetoothProtocol.c **** 				*((uint8_t*)(control_value->y_roll) + 3-k) = input_buffer[11+k];
 388              		.loc 1 81 0 discriminator 2
 389 020a BB68     		ldr	r3, [r7, #8]
 390 020c 5A69     		ldr	r2, [r3, #20]
 391 020e BB69     		ldr	r3, [r7, #24]
 392 0210 C3F10303 		rsb	r3, r3, #3
 393 0214 D318     		adds	r3, r2, r3
 394 0216 BA69     		ldr	r2, [r7, #24]
 395 0218 02F10B02 		add	r2, r2, #11
 396 021c F968     		ldr	r1, [r7, #12]
 397 021e 8A18     		adds	r2, r1, r2
 398 0220 1278     		ldrb	r2, [r2, #0]	@ zero_extendqisi2
 399 0222 1A70     		strb	r2, [r3, #0]
  77:../_Quadrocopter/RemoteControl/BluetoothProtocol/BluetoothProtocol.c **** 			for(int k = 0;k < 4;k++)
 400              		.loc 1 77 0 discriminator 2
 401 0224 BB69     		ldr	r3, [r7, #24]
 402 0226 03F10103 		add	r3, r3, #1
 403 022a BB61     		str	r3, [r7, #24]
 404              	.L14:
  77:../_Quadrocopter/RemoteControl/BluetoothProtocol/BluetoothProtocol.c **** 			for(int k = 0;k < 4;k++)
 405              		.loc 1 77 0 is_stmt 0 discriminator 1
 406 022c BB69     		ldr	r3, [r7, #24]
 407 022e 032B     		cmp	r3, #3
 408 0230 D1DD     		ble	.L15
 409              	.LBE5:
  82:../_Quadrocopter/RemoteControl/BluetoothProtocol/BluetoothProtocol.c **** 			}
  83:../_Quadrocopter/RemoteControl/BluetoothProtocol/BluetoothProtocol.c **** 			return RECEIVED_CONTROL_PACKET; //Got a valid Control-Package
 410              		.loc 1 83 0 is_stmt 1
 411 0232 4FF00003 		mov	r3, #0
 412 0236 0FE0     		b	.L13
 413              	.L7:
  84:../_Quadrocopter/RemoteControl/BluetoothProtocol/BluetoothProtocol.c **** 		}
  85:../_Quadrocopter/RemoteControl/BluetoothProtocol/BluetoothProtocol.c **** 	} else {
  86:../_Quadrocopter/RemoteControl/BluetoothProtocol/BluetoothProtocol.c **** 			packet_counter = 0; //if it happens between data-packages...
 414              		.loc 1 86 0
 415 0238 40F20003 		movw	r3, #:lower16:packet_counter.11159
 416 023c C0F20003 		movt	r3, #:upper16:packet_counter.11159
 417 0240 4FF00002 		mov	r2, #0
 418 0244 1A60     		str	r2, [r3, #0]
  87:../_Quadrocopter/RemoteControl/BluetoothProtocol/BluetoothProtocol.c **** 			//Cleanup Buffer//
  88:../_Quadrocopter/RemoteControl/BluetoothProtocol/BluetoothProtocol.c **** 			memset(input_buffer, 0x00,PACKET_SIZE);
 419              		.loc 1 88 0
 420 0246 F868     		ldr	r0, [r7, #12]
 421 0248 4FF00001 		mov	r1, #0
 422 024c 4FF01302 		mov	r2, #19
 423 0250 FFF7FEFF 		bl	memset
  89:../_Quadrocopter/RemoteControl/BluetoothProtocol/BluetoothProtocol.c **** 			return CHECKSUM_ERROR; //Wrong checksum
 424              		.loc 1 89 0
 425 0254 4FF0FF33 		mov	r3, #-1
 426              	.L13:
  90:../_Quadrocopter/RemoteControl/BluetoothProtocol/BluetoothProtocol.c **** 	}
  91:../_Quadrocopter/RemoteControl/BluetoothProtocol/BluetoothProtocol.c **** 	return UNDEFINED_ERROR; //error by default but in fact never reachable
  92:../_Quadrocopter/RemoteControl/BluetoothProtocol/BluetoothProtocol.c **** }
 427              		.loc 1 92 0
 428 0258 1846     		mov	r0, r3
 429 025a 07F12807 		add	r7, r7, #40
 430 025e BD46     		mov	sp, r7
 431 0260 80BD     		pop	{r7, pc}
 432              		.cfi_endproc
 433              	.LFE121:
 435 0262 00BF     		.bss
 436              		.align	2
 437              	packets_to_be_received.11160:
 438 0000 00000000 		.space	4
 439              		.align	2
 440              	packet_counter.11159:
 441 0004 00000000 		.space	4
 442              		.text
 443              	.Letext0:
 444              		.file 2 "c:\\dave-3.1.10\\arm-gcc\\bin\\../lib/gcc/arm-none-eabi/4.7.4/../../../../arm-none-eabi/i
 445              		.file 3 "E:\\GitHub\\Flying-PCB\\Software\\LARIX Flightcontroller\\CORE_Larix_V1.0\\Dave\\Generate
 446              		.file 4 "../_Quadrocopter/RemoteControl/BluetoothProtocol/BluetoothProtocol.h"
 447              		.file 5 "C:\\DAVE-3.1.10\\eclipse\\/../CMSIS/Include/core_cm4.h"
 448              		.file 6 "E:\\GitHub\\Flying-PCB\\Software\\LARIX Flightcontroller\\CORE_Larix_V1.0\\Dave\\Generate