   1              		.syntax unified
   2              		.cpu cortex-m4
   3              		.eabi_attribute 27, 3
   4              		.fpu fpv4-sp-d16
   5              		.eabi_attribute 20, 1
   6              		.eabi_attribute 21, 1
   7              		.eabi_attribute 23, 3
   8              		.eabi_attribute 24, 1
   9              		.eabi_attribute 25, 1
  10              		.eabi_attribute 26, 1
  11              		.eabi_attribute 30, 6
  12              		.eabi_attribute 34, 1
  13              		.eabi_attribute 18, 4
  14              		.thumb
  15              		.file	"FIR_Filter.c"
  16              		.text
  17              	.Ltext0:
  18              		.cfi_sections	.debug_frame
  19              		.section	.text.FIR_FILTER,"ax",%progbits
  20              		.align	2
  21              		.global	FIR_FILTER
  22              		.thumb
  23              		.thumb_func
  25              	FIR_FILTER:
  26              	.LFB0:
  27              		.file 1 "../_Quadrocopter/_FIR_Filter/FIR_Filter.c"
   1:../_Quadrocopter/_FIR_Filter/FIR_Filter.c **** /*
   2:../_Quadrocopter/_FIR_Filter/FIR_Filter.c ****  * FIR_Filter.c
   3:../_Quadrocopter/_FIR_Filter/FIR_Filter.c ****  *
   4:../_Quadrocopter/_FIR_Filter/FIR_Filter.c ****  *  Created on: 30.01.2016
   5:../_Quadrocopter/_FIR_Filter/FIR_Filter.c ****  *      Author: Heinz-Peter Liechtenecker
   6:../_Quadrocopter/_FIR_Filter/FIR_Filter.c ****  */
   7:../_Quadrocopter/_FIR_Filter/FIR_Filter.c **** 
   8:../_Quadrocopter/_FIR_Filter/FIR_Filter.c **** #include "FIR_Filter.h"
   9:../_Quadrocopter/_FIR_Filter/FIR_Filter.c **** 
  10:../_Quadrocopter/_FIR_Filter/FIR_Filter.c **** 
  11:../_Quadrocopter/_FIR_Filter/FIR_Filter.c **** struct structFIR FIR_FILTER(struct structFIR temp, float NewValue)
  12:../_Quadrocopter/_FIR_Filter/FIR_Filter.c **** {
  28              		.loc 1 12 0
  29              		.cfi_startproc
  30              		@ args = 64, pretend = 16, frame = 16
  31              		@ frame_needed = 1, uses_anonymous_args = 0
  32              		@ link register save eliminated.
  33 0000 84B0     		sub	sp, sp, #16
  34              	.LCFI0:
  35              		.cfi_def_cfa_offset 16
  36 0002 B0B4     		push	{r4, r5, r7}
  37              	.LCFI1:
  38              		.cfi_def_cfa_offset 28
  39              		.cfi_offset 4, -28
  40              		.cfi_offset 5, -24
  41              		.cfi_offset 7, -20
  42 0004 85B0     		sub	sp, sp, #20
  43              	.LCFI2:
  44              		.cfi_def_cfa_offset 48
  45 0006 00AF     		add	r7, sp, #0
  46              	.LCFI3:
  47              		.cfi_def_cfa_register 7
  48 0008 7860     		str	r0, [r7, #4]
  49 000a 07F12400 		add	r0, r7, #36
  50 000e 80E80E00 		stmia	r0, {r1, r2, r3}
  13:../_Quadrocopter/_FIR_Filter/FIR_Filter.c **** 	//Neuen Wert in den Ringbuffer schreiben
  14:../_Quadrocopter/_FIR_Filter/FIR_Filter.c **** 	temp.CIRC_BUFF[temp.POS] = NewValue;
  51              		.loc 1 14 0
  52 0012 BB6D     		ldr	r3, [r7, #88]
  53 0014 4FEA8303 		lsl	r3, r3, #2
  54 0018 07F12000 		add	r0, r7, #32
  55 001c C318     		adds	r3, r0, r3
  56 001e 03F10403 		add	r3, r3, #4
  57 0022 FA6D     		ldr	r2, [r7, #92]	@ float
  58 0024 1A60     		str	r2, [r3, #0]	@ float
  15:../_Quadrocopter/_FIR_Filter/FIR_Filter.c **** 
  16:../_Quadrocopter/_FIR_Filter/FIR_Filter.c **** 	//Neuen Zeiger auf das Array berrechnen
  17:../_Quadrocopter/_FIR_Filter/FIR_Filter.c **** 	temp.POS = ((temp.POS+1)%FIR_SIZE);
  59              		.loc 1 17 0
  60 0026 BB6D     		ldr	r3, [r7, #88]
  61 0028 03F10101 		add	r1, r3, #1
  62 002c 4AF6AB23 		movw	r3, #43691
  63 0030 C2F6AA23 		movt	r3, 10922
  64 0034 83FB0102 		smull	r0, r2, r3, r1
  65 0038 4FEAE173 		asr	r3, r1, #31
  66 003c D21A     		subs	r2, r2, r3
  67 003e 1346     		mov	r3, r2
  68 0040 4FEA4303 		lsl	r3, r3, #1
  69 0044 9B18     		adds	r3, r3, r2
  70 0046 4FEA4303 		lsl	r3, r3, #1
  71 004a CA1A     		subs	r2, r1, r3
  72 004c BA65     		str	r2, [r7, #88]
  18:../_Quadrocopter/_FIR_Filter/FIR_Filter.c **** 
  19:../_Quadrocopter/_FIR_Filter/FIR_Filter.c **** 	//Rückgabewert erstmal resetten
  20:../_Quadrocopter/_FIR_Filter/FIR_Filter.c **** 	temp.VALUE = 0;
  73              		.loc 1 20 0
  74 004e 4FF00003 		mov	r3, #0
  75 0052 7B65     		str	r3, [r7, #84]	@ float
  76              	.LBB2:
  21:../_Quadrocopter/_FIR_Filter/FIR_Filter.c **** 
  22:../_Quadrocopter/_FIR_Filter/FIR_Filter.c **** 	//Eigentliches Werteberechnung durch Faltungsintegral
  23:../_Quadrocopter/_FIR_Filter/FIR_Filter.c **** 	for(int i = 0; i < FIR_SIZE; i++)
  77              		.loc 1 23 0
  78 0054 4FF00003 		mov	r3, #0
  79 0058 FB60     		str	r3, [r7, #12]
  80 005a 33E0     		b	.L2
  81              	.L3:
  24:../_Quadrocopter/_FIR_Filter/FIR_Filter.c **** 	{
  25:../_Quadrocopter/_FIR_Filter/FIR_Filter.c **** 		temp.VALUE += (temp.FIR_COEFF[i] * temp.CIRC_BUFF[(temp.POS+i)%FIR_SIZE]);
  82              		.loc 1 25 0 discriminator 2
  83 005c 97ED157A 		flds	s14, [r7, #84]
  84 0060 FB68     		ldr	r3, [r7, #12]
  85 0062 03F10603 		add	r3, r3, #6
  86 0066 4FEA8303 		lsl	r3, r3, #2
  87 006a 07F12002 		add	r2, r7, #32
  88 006e D318     		adds	r3, r2, r3
  89 0070 03F10403 		add	r3, r3, #4
  90 0074 D3ED006A 		flds	s13, [r3, #0]
  91 0078 BA6D     		ldr	r2, [r7, #88]
  92 007a FB68     		ldr	r3, [r7, #12]
  93 007c D118     		adds	r1, r2, r3
  94 007e 4AF6AB23 		movw	r3, #43691
  95 0082 C2F6AA23 		movt	r3, 10922
  96 0086 83FB0102 		smull	r0, r2, r3, r1
  97 008a 4FEAE173 		asr	r3, r1, #31
  98 008e D21A     		subs	r2, r2, r3
  99 0090 1346     		mov	r3, r2
 100 0092 4FEA4303 		lsl	r3, r3, #1
 101 0096 9B18     		adds	r3, r3, r2
 102 0098 4FEA4303 		lsl	r3, r3, #1
 103 009c CA1A     		subs	r2, r1, r3
 104 009e 4FEA8203 		lsl	r3, r2, #2
 105 00a2 07F12002 		add	r2, r7, #32
 106 00a6 D318     		adds	r3, r2, r3
 107 00a8 03F10403 		add	r3, r3, #4
 108 00ac D3ED007A 		flds	s15, [r3, #0]
 109 00b0 66EEA77A 		fmuls	s15, s13, s15
 110 00b4 77EE277A 		fadds	s15, s14, s15
 111 00b8 C7ED157A 		fsts	s15, [r7, #84]
  23:../_Quadrocopter/_FIR_Filter/FIR_Filter.c **** 	for(int i = 0; i < FIR_SIZE; i++)
 112              		.loc 1 23 0 discriminator 2
 113 00bc FB68     		ldr	r3, [r7, #12]
 114 00be 03F10103 		add	r3, r3, #1
 115 00c2 FB60     		str	r3, [r7, #12]
 116              	.L2:
  23:../_Quadrocopter/_FIR_Filter/FIR_Filter.c **** 	for(int i = 0; i < FIR_SIZE; i++)
 117              		.loc 1 23 0 is_stmt 0 discriminator 1
 118 00c4 FB68     		ldr	r3, [r7, #12]
 119 00c6 052B     		cmp	r3, #5
 120 00c8 C8DD     		ble	.L3
 121              	.LBE2:
  26:../_Quadrocopter/_FIR_Filter/FIR_Filter.c **** 	}
  27:../_Quadrocopter/_FIR_Filter/FIR_Filter.c **** 
  28:../_Quadrocopter/_FIR_Filter/FIR_Filter.c **** 	//Rückgabewert des neuen Buffers
  29:../_Quadrocopter/_FIR_Filter/FIR_Filter.c **** 	return temp;
 122              		.loc 1 29 0 is_stmt 1
 123 00ca 7B68     		ldr	r3, [r7, #4]
 124 00cc 1C46     		mov	r4, r3
 125 00ce 07F12405 		add	r5, r7, #36
 126 00d2 0FCD     		ldmia	r5!, {r0, r1, r2, r3}
 127 00d4 0FC4     		stmia	r4!, {r0, r1, r2, r3}
 128 00d6 0FCD     		ldmia	r5!, {r0, r1, r2, r3}
 129 00d8 0FC4     		stmia	r4!, {r0, r1, r2, r3}
 130 00da 0FCD     		ldmia	r5!, {r0, r1, r2, r3}
 131 00dc 0FC4     		stmia	r4!, {r0, r1, r2, r3}
 132 00de 95E80300 		ldmia	r5, {r0, r1}
 133 00e2 84E80300 		stmia	r4, {r0, r1}
  30:../_Quadrocopter/_FIR_Filter/FIR_Filter.c **** }
 134              		.loc 1 30 0
 135 00e6 7868     		ldr	r0, [r7, #4]
 136 00e8 07F11407 		add	r7, r7, #20
 137 00ec BD46     		mov	sp, r7
 138 00ee B0BC     		pop	{r4, r5, r7}
 139 00f0 04B0     		add	sp, sp, #16
 140 00f2 7047     		bx	lr
 141              		.cfi_endproc
 142              	.LFE0:
 144              		.section	.text.Initialize_FIR_Filter,"ax",%progbits
 145              		.align	2
 146              		.global	Initialize_FIR_Filter
 147              		.thumb
 148              		.thumb_func
 150              	Initialize_FIR_Filter:
 151              	.LFB1:
  31:../_Quadrocopter/_FIR_Filter/FIR_Filter.c **** 
  32:../_Quadrocopter/_FIR_Filter/FIR_Filter.c **** 
  33:../_Quadrocopter/_FIR_Filter/FIR_Filter.c **** struct structFIR Initialize_FIR_Filter(struct structFIR temp, int type)
  34:../_Quadrocopter/_FIR_Filter/FIR_Filter.c **** {
 152              		.loc 1 34 0
 153              		.cfi_startproc
 154              		@ args = 64, pretend = 16, frame = 16
 155              		@ frame_needed = 1, uses_anonymous_args = 0
 156              		@ link register save eliminated.
 157 0000 84B0     		sub	sp, sp, #16
 158              	.LCFI4:
 159              		.cfi_def_cfa_offset 16
 160 0002 B0B4     		push	{r4, r5, r7}
 161              	.LCFI5:
 162              		.cfi_def_cfa_offset 28
 163              		.cfi_offset 4, -28
 164              		.cfi_offset 5, -24
 165              		.cfi_offset 7, -20
 166 0004 85B0     		sub	sp, sp, #20
 167              	.LCFI6:
 168              		.cfi_def_cfa_offset 48
 169 0006 00AF     		add	r7, sp, #0
 170              	.LCFI7:
 171              		.cfi_def_cfa_register 7
 172 0008 7860     		str	r0, [r7, #4]
 173 000a 07F12400 		add	r0, r7, #36
 174 000e 80E80E00 		stmia	r0, {r1, r2, r3}
 175              	.LBB3:
  35:../_Quadrocopter/_FIR_Filter/FIR_Filter.c **** 	//Alle Werte im Ringbuffer auf 0 setzen
  36:../_Quadrocopter/_FIR_Filter/FIR_Filter.c **** 	for(int i = 0; i < FIR_SIZE; i++)
 176              		.loc 1 36 0
 177 0012 4FF00003 		mov	r3, #0
 178 0016 FB60     		str	r3, [r7, #12]
 179 0018 0EE0     		b	.L6
 180              	.L7:
  37:../_Quadrocopter/_FIR_Filter/FIR_Filter.c **** 		temp.CIRC_BUFF[i] = 0.0;
 181              		.loc 1 37 0 discriminator 2
 182 001a FB68     		ldr	r3, [r7, #12]
 183 001c 4FEA8303 		lsl	r3, r3, #2
 184 0020 07F12002 		add	r2, r7, #32
 185 0024 D318     		adds	r3, r2, r3
 186 0026 03F10403 		add	r3, r3, #4
 187 002a 4FF00002 		mov	r2, #0
 188 002e 1A60     		str	r2, [r3, #0]	@ float
  36:../_Quadrocopter/_FIR_Filter/FIR_Filter.c **** 	for(int i = 0; i < FIR_SIZE; i++)
 189              		.loc 1 36 0 discriminator 2
 190 0030 FB68     		ldr	r3, [r7, #12]
 191 0032 03F10103 		add	r3, r3, #1
 192 0036 FB60     		str	r3, [r7, #12]
 193              	.L6:
  36:../_Quadrocopter/_FIR_Filter/FIR_Filter.c **** 	for(int i = 0; i < FIR_SIZE; i++)
 194              		.loc 1 36 0 is_stmt 0 discriminator 1
 195 0038 FB68     		ldr	r3, [r7, #12]
 196 003a 052B     		cmp	r3, #5
 197 003c EDDD     		ble	.L7
 198              	.LBE3:
  38:../_Quadrocopter/_FIR_Filter/FIR_Filter.c **** 
  39:../_Quadrocopter/_FIR_Filter/FIR_Filter.c **** 	//Pointer im Circ-Buffer auf 0 setzen
  40:../_Quadrocopter/_FIR_Filter/FIR_Filter.c **** 	temp.POS = 0;
 199              		.loc 1 40 0 is_stmt 1
 200 003e 4FF00003 		mov	r3, #0
 201 0042 BB65     		str	r3, [r7, #88]
 202              	.LBB4:
  41:../_Quadrocopter/_FIR_Filter/FIR_Filter.c **** 
  42:../_Quadrocopter/_FIR_Filter/FIR_Filter.c **** 	//Filter-Koeffizienten erstellen und im Array befüllen
  43:../_Quadrocopter/_FIR_Filter/FIR_Filter.c **** 	switch(type)
  44:../_Quadrocopter/_FIR_Filter/FIR_Filter.c **** 	{
  45:../_Quadrocopter/_FIR_Filter/FIR_Filter.c **** 	case MOVING_AVERAGE:
  46:../_Quadrocopter/_FIR_Filter/FIR_Filter.c **** 	default:
  47:../_Quadrocopter/_FIR_Filter/FIR_Filter.c **** 		for(int i = 0; i < FIR_SIZE; i++)
 203              		.loc 1 47 0
 204 0044 4FF00003 		mov	r3, #0
 205 0048 BB60     		str	r3, [r7, #8]
 206 004a 12E0     		b	.L8
 207              	.L9:
  48:../_Quadrocopter/_FIR_Filter/FIR_Filter.c **** 			temp.FIR_COEFF[i] = 1.0/FIR_SIZE;
 208              		.loc 1 48 0 discriminator 2
 209 004c BB68     		ldr	r3, [r7, #8]
 210 004e 03F10603 		add	r3, r3, #6
 211 0052 4FEA8303 		lsl	r3, r3, #2
 212 0056 07F12002 		add	r2, r7, #32
 213 005a D318     		adds	r3, r2, r3
 214 005c 03F10403 		add	r3, r3, #4
 215 0060 4AF6AB22 		movw	r2, #43691
 216 0064 C3F62A62 		movt	r2, 15914
 217 0068 1A60     		str	r2, [r3, #0]	@ float
  47:../_Quadrocopter/_FIR_Filter/FIR_Filter.c **** 		for(int i = 0; i < FIR_SIZE; i++)
 218              		.loc 1 47 0 discriminator 2
 219 006a BB68     		ldr	r3, [r7, #8]
 220 006c 03F10103 		add	r3, r3, #1
 221 0070 BB60     		str	r3, [r7, #8]
 222              	.L8:
  47:../_Quadrocopter/_FIR_Filter/FIR_Filter.c **** 		for(int i = 0; i < FIR_SIZE; i++)
 223              		.loc 1 47 0 is_stmt 0 discriminator 1
 224 0072 BB68     		ldr	r3, [r7, #8]
 225 0074 052B     		cmp	r3, #5
 226 0076 E9DD     		ble	.L9
 227              	.LBE4:
  49:../_Quadrocopter/_FIR_Filter/FIR_Filter.c **** 		break;
 228              		.loc 1 49 0 is_stmt 1
 229 0078 00BF     		nop
  50:../_Quadrocopter/_FIR_Filter/FIR_Filter.c **** 	}
  51:../_Quadrocopter/_FIR_Filter/FIR_Filter.c **** 
  52:../_Quadrocopter/_FIR_Filter/FIR_Filter.c **** 	return temp;
 230              		.loc 1 52 0
 231 007a 7B68     		ldr	r3, [r7, #4]
 232 007c 1C46     		mov	r4, r3
 233 007e 07F12405 		add	r5, r7, #36
 234 0082 0FCD     		ldmia	r5!, {r0, r1, r2, r3}
 235 0084 0FC4     		stmia	r4!, {r0, r1, r2, r3}
 236 0086 0FCD     		ldmia	r5!, {r0, r1, r2, r3}
 237 0088 0FC4     		stmia	r4!, {r0, r1, r2, r3}
 238 008a 0FCD     		ldmia	r5!, {r0, r1, r2, r3}
 239 008c 0FC4     		stmia	r4!, {r0, r1, r2, r3}
 240 008e 95E80300 		ldmia	r5, {r0, r1}
 241 0092 84E80300 		stmia	r4, {r0, r1}
  53:../_Quadrocopter/_FIR_Filter/FIR_Filter.c **** }
 242              		.loc 1 53 0
 243 0096 7868     		ldr	r0, [r7, #4]
 244 0098 07F11407 		add	r7, r7, #20
 245 009c BD46     		mov	sp, r7
 246 009e B0BC     		pop	{r4, r5, r7}
 247 00a0 04B0     		add	sp, sp, #16
 248 00a2 7047     		bx	lr
 249              		.cfi_endproc
 250              	.LFE1:
 252              		.text
 253              	.Letext0:
 254              		.file 2 "../_Quadrocopter/_FIR_Filter/FIR_Filter.h"